; Function Attrs: mustprogress nounwind uwtable
define void @_ZN3net22CryptoHandshakeMessageD2Ev(ptr noundef nonnull align 8 dereferenceable(72) %0) unnamed_addr #3 align 2 personality ptr @__gxx_personality_v0 {
  %2 = getelementptr inbounds nuw i8, ptr %0, i64 64
  %3 = load ptr, ptr %2, align 8, !tbaa !42
  %.not.i = icmp eq ptr %3, null
  br i1 %.not.i, label %_ZNSt10unique_ptrIN3net8QuicDataESt14default_deleteIS1_EED2Ev.exit, label %_ZNKSt14default_deleteIN3net8QuicDataEEclEPS1_.exit.i

_ZNKSt14default_deleteIN3net8QuicDataEEclEPS1_.exit.i: ; preds = %1
  %4 = load ptr, ptr %3, align 8, !tbaa !43
  %5 = getelementptr inbounds nuw i8, ptr %4, i64 8
  %6 = load ptr, ptr %5, align 8
  tail call void %6(ptr noundef nonnull align 8 dereferenceable(25) %3) #22
  br label %_ZNSt10unique_ptrIN3net8QuicDataESt14default_deleteIS1_EED2Ev.exit

_ZNSt10unique_ptrIN3net8QuicDataESt14default_deleteIS1_EED2Ev.exit: ; preds = %1, %_ZNKSt14default_deleteIN3net8QuicDataEEclEPS1_.exit.i
  store ptr null, ptr %2, align 8, !tbaa !42
  %7 = getelementptr inbounds nuw i8, ptr %0, i64 8
  %8 = getelementptr inbounds nuw i8, ptr %0, i64 24
  %9 = load ptr, ptr %8, align 8, !tbaa !27
  invoke void @_ZNSt8_Rb_treeIjSt4pairIKjNSt7__cxx1112basic_stringIcSt11char_traitsIcESaIcEEEESt10_Select1stIS8_ESt4lessIjESaIS8_EE8_M_eraseEPSt13_Rb_tree_nodeIS8_E(ptr noundef nonnull align 8 dereferenceable(48) %7, ptr noundef %9)
          to label %_ZNSt3mapIjNSt7__cxx1112basic_stringIcSt11char_traitsIcESaIcEEESt4lessIjESaISt4pairIKjS5_EEED2Ev.exit unwind label %10

10:                                               ; preds = %_ZNSt10unique_ptrIN3net8QuicDataESt14default_deleteIS1_EED2Ev.exit
  %11 = landingpad { ptr, i32 }
          catch ptr null
  %12 = extractvalue { ptr, i32 } %11, 0
  tail call void @__clang_call_terminate(ptr %12) #23
  unreachable

_ZNSt3mapIjNSt7__cxx1112basic_stringIcSt11char_traitsIcESaIcEEESt4lessIjESaISt4pairIKjS5_EEED2Ev.exit: ; preds = %_ZNSt10unique_ptrIN3net8QuicDataESt14default_deleteIS1_EED2Ev.exit
  ret void
}